Certificate:
    Data:
        Version: 3 (0x2)
        Serial Number: 305419897 (0x12345679)
        Signature Algorithm: sha256WithRSAEncryption
        Issuer: CN=SRK1_sha256_2048_65537_v3_ca
        Validity
            Not Before: Aug 15 11:43:16 2023 GMT
            Not After : Jul 22 11:43:16 2122 GMT
        Subject: CN=CSF1_1_sha256_2048_65537_v3_usr
        Subject Public Key Info:
            Public Key Algorithm: rsaEncryption
                Public-Key: (2048 bit)
                Modulus:
                    00:b7:08:c6:2c:17:10:7c:95:0a:79:e2:02:26:2b:
                    0d:7c:ab:0e:6c:1a:24:49:2f:1e:82:4d:42:5c:1d:
                    4b:e2:25:56:30:cc:c0:e2:b7:a4:fb:12:12:40:02:
                    4b:35:c0:b3:73:17:de:bd:a7:15:03:38:b3:07:ab:
                    40:5f:dd:26:4d:21:83:ee:f1:90:cd:5c:eb:10:de:
                    69:23:e3:80:50:3f:1e:1c:e2:f3:6d:51:c0:91:f7:
                    9a:29:c6:ff:17:c8:3f:b2:0f:11:91:87:ab:df:93:
                    60:12:a8:f8:49:87:13:60:c5:b3:39:04:44:4b:38:
                    c6:4e:f3:90:79:78:f2:27:f2:e9:4d:99:51:f5:fa:
                    72:82:68:6e:96:5d:9d:86:f3:2e:40:c3:36:34:04:
                    a6:06:14:5a:da:f4:a0:2e:c4:e0:2c:cd:da:87:76:
                    11:69:47:67:16:2c:06:ca:59:6b:e1:74:1f:1b:43:
                    31:0d:c2:71:ef:cd:02:e1:f2:f5:bb:9b:47:4a:08:
                    25:e0:4f:33:eb:74:eb:25:54:c6:97:ea:61:d8:58:
                    61:36:90:59:02:86:83:2a:3f:c3:c4:c5:d4:17:07:
                    8d:e3:e8:5b:7c:98:79:ec:df:12:75:d7:f0:3b:b0:
                    49:10:01:4c:77:f7:34:de:fb:66:b2:36:20:af:a0:
                    73:0b
                Exponent: 65537 (0x10001)
        X509v3 extensions:
            X509v3 Basic Constraints: 
                CA:FALSE
            Netscape Comment: 
                OpenSSL Generated Certificate
            X509v3 Subject Key Identifier: 
                85:AD:4B:17:E4:EE:6F:D4:B2:0E:FF:70:6A:C2:EC:17:2A:F0:47:B5
            X509v3 Authority Key Identifier: 
                FA:E0:D9:57:17:F7:B5:22:08:78:BE:EE:8C:9B:67:39:B4:20:22:10
    Signature Algorithm: sha256WithRSAEncryption
    Signature Value:
        82:8b:39:fa:93:25:80:1e:ad:83:78:0e:59:a8:91:f8:b3:80:
        cf:46:84:e2:2e:76:aa:8b:60:eb:11:f1:8d:1b:39:e3:f6:fd:
        fd:d5:dc:41:cf:5f:71:b6:d4:9b:a3:a5:6f:59:31:79:bc:aa:
        a9:f8:62:0f:ac:ec:ee:c1:77:a0:8f:09:4c:fe:e5:6c:14:04:
        d2:74:a6:c5:88:57:9f:ab:cb:d9:c7:3b:c4:36:71:e6:73:da:
        4b:2a:b7:09:57:72:3c:83:11:a2:57:33:12:a1:8b:0f:d7:d7:
        8d:a4:33:74:df:57:45:87:5b:8a:a9:f6:01:b1:b9:c8:15:20:
        ce:f9:74:c0:3c:86:ab:96:77:ab:84:a0:43:b4:58:58:74:f3:
        27:5b:35:e1:48:5a:ea:78:78:ef:46:3e:46:89:d1:cd:36:0e:
        78:bf:e0:5e:09:64:ef:25:65:ba:73:18:6a:48:cf:03:ed:d9:
        3e:0d:05:be:ba:33:d6:44:91:5d:a6:2f:ab:6c:a1:5a:cb:41:
        9b:bd:c2:f4:25:3f:32:31:54:b2:06:82:27:f1:31:07:35:08:
        4b:1e:fa:8e:73:5d:d6:1b:ff:d2:e8:49:60:ed:ad:dc:2b:61:
        ab:a2:c9:c9:f4:34:c4:fd:f5:e8:aa:45:cf:b0:66:b6:14:9a:
        be:ef:7c:ba
-----BEGIN CERTIFICATE-----
MIIDTDCCAjSgAwIBAgIEEjRWeTANBgkqhkiG9w0BAQsFADAnMSUwIwYDVQQDDBxT
UksxX3NoYTI1Nl8yMDQ4XzY1NTM3X3YzX2NhMCAXDTIzMDgxNTExNDMxNloYDzIx
MjIwNzIyMTE0MzE2WjAqMSgwJgYDVQQDDB9DU0YxXzFfc2hhMjU2XzIwNDhfNjU1
MzdfdjNfdXNyMIIBIjANBgkqhkiG9w0BAQEFAAOCAQ8AMIIBCgKCAQEAtwjGLBcQ
fJUKeeICJisNfKsObBokSS8egk1CXB1L4iVWMMzA4rek+xISQAJLNcCzcxfevacV
AzizB6tAX90mTSGD7vGQzVzrEN5pI+OAUD8eHOLzbVHAkfeaKcb/F8g/sg8RkYer
35NgEqj4SYcTYMWzOQRESzjGTvOQeXjyJ/LpTZlR9fpygmhull2dhvMuQMM2NASm
BhRa2vSgLsTgLM3ah3YRaUdnFiwGyllr4XQfG0MxDcJx780C4fL1u5tHSggl4E8z
63TrJVTGl+ph2FhhNpBZAoaDKj/DxMXUFweN4+hbfJh57N8SddfwO7BJEAFMd/c0
3vtmsjYgr6BzCwIDAQABo3sweTAJBgNVHRMEAjAAMCwGCWCGSAGG+EIBDQQfFh1P
cGVuU1NMIEdlbmVyYXRlZCBDZXJ0aWZpY2F0ZTAdBgNVHQ4EFgQUha1LF+Tub9Sy
Dv9wasLsFyrwR7UwHwYDVR0jBBgwFoAU+uDZVxf3tSIIeL7ujJtnObQgIhAwDQYJ
KoZIhvcNAQELBQADggEBAIKLOfqTJYAerYN4DlmokfizgM9GhOIudqqLYOsR8Y0b
OeP2/f3V3EHPX3G21JujpW9ZMXm8qqn4Yg+s7O7Bd6CPCUz+5WwUBNJ0psWIV5+r
y9nHO8Q2ceZz2ksqtwlXcjyDEaJXMxKhiw/X142kM3TfV0WHW4qp9gGxucgVIM75
dMA8hquWd6uEoEO0WFh08ydbNeFIWup4eO9GPkaJ0c02Dni/4F4JZO8lZbpzGGpI
zwPt2T4NBb66M9ZEkV2mL6tsoVrLQZu9wvQlPzIxVLIGgifxMQc1CEse+o5zXdYb
/9LoSWDtrdwrYauiycn0NMT99eiqRc+wZrYUmr7vfLo=
-----END CERTIFICATE-----
