Certificate:
    Data:
        Version: 3 (0x2)
        Serial Number: 305419900 (0x1234567c)
        Signature Algorithm: sha256WithRSAEncryption
        Issuer: CN=SRK2_sha256_2048_65537_v3_ca
        Validity
            Not Before: Aug 15 11:43:16 2023 GMT
            Not After : Jul 22 11:43:16 2122 GMT
        Subject: CN=CSF2_1_sha256_2048_65537_v3_usr
        Subject Public Key Info:
            Public Key Algorithm: rsaEncryption
                Public-Key: (2048 bit)
                Modulus:
                    00:ca:81:4b:3c:35:53:00:34:6e:6e:78:4d:e3:bb:
                    e5:ea:75:a4:2b:07:c3:8a:71:7f:9d:06:81:77:d5:
                    02:6c:13:9d:66:9a:0e:c6:70:d2:49:77:9c:22:4e:
                    3b:59:52:69:9d:2c:25:ef:b5:75:4e:36:28:a2:53:
                    13:5a:e9:11:78:78:9a:4a:80:87:fc:82:c0:e9:bb:
                    cf:4e:99:86:ba:93:82:34:9e:d1:ab:dc:9f:17:21:
                    f8:2a:e8:f2:c5:a2:f2:96:dc:38:18:19:5c:5d:4e:
                    eb:90:87:35:4a:d6:ff:2b:5d:aa:0d:62:24:a0:f5:
                    92:c3:73:a1:40:b8:9f:c8:18:bd:9d:3d:8c:0d:4c:
                    dd:7f:49:c3:51:56:37:7a:0b:60:47:5d:f9:d1:5f:
                    de:74:27:99:5d:e8:e0:d7:f4:bd:aa:11:38:40:fb:
                    80:a4:06:85:0a:c5:a3:b1:21:a1:6a:e9:b5:45:ac:
                    49:cd:5d:bd:db:6d:8e:2e:0c:81:c8:ef:fa:3f:11:
                    e2:40:a3:9d:e8:b3:df:df:bd:b7:50:ba:5f:d8:d2:
                    c5:76:8b:e9:76:36:ac:ff:bb:5a:a8:18:55:af:33:
                    e2:79:eb:64:e2:0e:be:ce:cc:e3:8d:a7:28:a8:ea:
                    a0:5d:c9:14:60:27:d2:b6:71:f9:30:cf:26:aa:d8:
                    75:9d
                Exponent: 65537 (0x10001)
        X509v3 extensions:
            X509v3 Basic Constraints: 
                CA:FALSE
            Netscape Comment: 
                OpenSSL Generated Certificate
            X509v3 Subject Key Identifier: 
                EA:45:2A:5B:3B:51:CA:9D:CB:11:4A:CC:15:CD:3D:75:B5:B3:8B:2E
            X509v3 Authority Key Identifier: 
                75:C5:85:57:84:65:B0:57:41:E0:88:AE:83:C3:38:FF:31:B4:E2:90
    Signature Algorithm: sha256WithRSAEncryption
    Signature Value:
        56:9e:aa:8b:18:2b:54:3c:82:78:1b:bb:b0:ad:54:98:a3:de:
        e6:e0:e7:f1:43:13:65:76:83:40:60:91:2b:94:6d:8a:ec:13:
        b3:33:6f:2d:a7:b2:2b:1e:65:74:99:51:07:5c:ae:81:8b:78:
        de:f0:73:57:64:56:c1:c8:e4:d2:e4:a0:3b:34:46:0f:a6:3b:
        0f:37:ca:80:bf:bd:f0:6e:8f:30:f3:e6:54:70:3f:28:b1:fb:
        eb:1a:bc:bd:62:77:18:18:23:a9:56:6a:22:3f:8e:12:c1:61:
        fc:1f:3e:eb:b8:5e:7b:da:56:d0:92:f0:2c:74:29:59:35:a6:
        bc:11:1a:3e:ef:fa:f3:60:51:80:3b:10:56:82:e6:39:b0:b1:
        3f:18:52:13:03:61:6e:5d:81:a0:b3:42:d7:81:4a:c0:e0:69:
        26:60:9e:8b:75:43:80:78:65:84:a6:84:46:d3:e4:b7:34:bf:
        32:68:93:72:2c:6b:2f:f4:d3:7f:14:bc:be:d7:35:1a:7f:b8:
        35:78:db:1e:12:7f:9b:6f:43:8b:bd:af:ef:13:da:f9:82:80:
        62:4e:62:f2:d7:12:78:ba:41:d0:dc:89:61:a5:f9:ee:68:5c:
        f1:36:2e:ea:4d:e2:03:4f:ef:b8:4a:a4:e7:3b:1d:3e:1a:11:
        93:32:a6:b6
-----BEGIN CERTIFICATE-----
MIIDTDCCAjSgAwIBAgIEEjRWfDANBgkqhkiG9w0BAQsFADAnMSUwIwYDVQQDDBxT
UksyX3NoYTI1Nl8yMDQ4XzY1NTM3X3YzX2NhMCAXDTIzMDgxNTExNDMxNloYDzIx
MjIwNzIyMTE0MzE2WjAqMSgwJgYDVQQDDB9DU0YyXzFfc2hhMjU2XzIwNDhfNjU1
MzdfdjNfdXNyMIIBIjANBgkqhkiG9w0BAQEFAAOCAQ8AMIIBCgKCAQEAyoFLPDVT
ADRubnhN47vl6nWkKwfDinF/nQaBd9UCbBOdZpoOxnDSSXecIk47WVJpnSwl77V1
TjYoolMTWukReHiaSoCH/ILA6bvPTpmGupOCNJ7Rq9yfFyH4KujyxaLyltw4GBlc
XU7rkIc1Stb/K12qDWIkoPWSw3OhQLifyBi9nT2MDUzdf0nDUVY3egtgR1350V/e
dCeZXejg1/S9qhE4QPuApAaFCsWjsSGhaum1RaxJzV29222OLgyByO/6PxHiQKOd
6LPf3723ULpf2NLFdovpdjas/7taqBhVrzPieetk4g6+zszjjacoqOqgXckUYCfS
tnH5MM8mqth1nQIDAQABo3sweTAJBgNVHRMEAjAAMCwGCWCGSAGG+EIBDQQfFh1P
cGVuU1NMIEdlbmVyYXRlZCBDZXJ0aWZpY2F0ZTAdBgNVHQ4EFgQU6kUqWztRyp3L
EUrMFc09dbWziy4wHwYDVR0jBBgwFoAUdcWFV4RlsFdB4Iiug8M4/zG04pAwDQYJ
KoZIhvcNAQELBQADggEBAFaeqosYK1Q8gngbu7CtVJij3ubg5/FDE2V2g0BgkSuU
bYrsE7Mzby2nsiseZXSZUQdcroGLeN7wc1dkVsHI5NLkoDs0Rg+mOw83yoC/vfBu
jzDz5lRwPyix++savL1idxgYI6lWaiI/jhLBYfwfPuu4XnvaVtCS8Cx0KVk1prwR
Gj7v+vNgUYA7EFaC5jmwsT8YUhMDYW5dgaCzQteBSsDgaSZgnot1Q4B4ZYSmhEbT
5Lc0vzJok3Isay/0038UvL7XNRp/uDV42x4Sf5tvQ4u9r+8T2vmCgGJOYvLXEni6
QdDciWGl+e5oXPE2LupN4gNP77hKpOc7HT4aEZMyprY=
-----END CERTIFICATE-----
