Certificate:
    Data:
        Version: 3 (0x2)
        Serial Number: 305419898 (0x1234567a)
        Signature Algorithm: sha256WithRSAEncryption
        Issuer: CN=SRK1_sha256_2048_65537_v3_ca
        Validity
            Not Before: Aug 15 11:43:16 2023 GMT
            Not After : Jul 22 11:43:16 2122 GMT
        Subject: CN=IMG1_1_sha256_2048_65537_v3_usr
        Subject Public Key Info:
            Public Key Algorithm: rsaEncryption
                Public-Key: (2048 bit)
                Modulus:
                    00:c9:b1:04:67:1e:0a:dc:9a:da:72:6a:dc:69:fb:
                    73:62:45:ab:50:00:08:e2:7e:e6:36:5a:f7:cb:af:
                    d3:b0:66:a6:3f:0c:0b:65:7d:88:82:7b:dd:6a:e7:
                    cc:93:cb:4a:09:63:f1:00:fe:f7:40:94:1e:bb:78:
                    78:ec:34:40:c9:51:3b:5c:2f:eb:0a:0e:3e:57:bd:
                    4e:99:89:1e:5a:35:99:04:54:99:3d:db:ab:a3:0e:
                    89:c5:25:4c:fe:23:ef:93:d3:72:08:7e:6f:d0:97:
                    9c:7f:e7:a8:84:9f:c5:81:f1:83:45:fd:76:eb:f2:
                    06:1d:98:e9:6d:45:cf:dd:6f:c7:55:f6:77:a5:92:
                    3e:00:70:f8:ca:d1:fd:c6:b4:b0:14:ff:c8:1b:79:
                    90:5c:9d:1c:f3:0c:8b:12:b3:a3:9a:0b:34:ca:9d:
                    0d:8a:f4:2d:e7:8a:e1:fb:14:58:6d:e2:89:18:14:
                    45:86:d7:aa:cf:70:ac:93:6d:00:14:06:e1:c1:18:
                    dc:08:20:e7:40:9c:97:05:b8:c0:72:c9:86:61:40:
                    0e:b3:1d:15:62:7e:9b:c9:3b:06:a5:8e:38:4a:85:
                    05:eb:03:fc:de:bc:ab:3c:36:aa:a8:d4:ab:03:a4:
                    92:ed:75:53:a9:20:7a:df:98:a1:8c:21:ec:ff:e5:
                    93:39
                Exponent: 65537 (0x10001)
        X509v3 extensions:
            X509v3 Basic Constraints: 
                CA:FALSE
            Netscape Comment: 
                OpenSSL Generated Certificate
            X509v3 Subject Key Identifier: 
                6D:E0:CC:FB:B2:F2:45:63:20:AB:32:7D:CA:BA:2E:5F:7E:F7:8D:70
            X509v3 Authority Key Identifier: 
                FA:E0:D9:57:17:F7:B5:22:08:78:BE:EE:8C:9B:67:39:B4:20:22:10
    Signature Algorithm: sha256WithRSAEncryption
    Signature Value:
        7c:48:65:86:2a:d9:cb:3a:c4:b1:e9:01:65:2b:57:0c:2a:3e:
        a0:23:09:a6:0e:af:12:20:02:38:2f:ef:22:6c:14:cf:a7:ef:
        b6:40:f3:7e:03:5d:a7:13:16:98:7f:36:1b:3c:08:40:13:8d:
        09:4f:a6:04:61:39:0b:cb:5b:a2:f3:54:50:6f:7f:ec:00:a6:
        da:50:9b:90:ed:03:5e:86:f8:d1:e9:c1:11:2c:fa:ab:0d:f0:
        c9:a3:b6:c4:44:f0:07:0d:b5:ec:d7:76:32:f9:08:eb:f0:d6:
        d3:83:15:00:da:09:40:19:2b:09:44:e2:c0:23:50:d7:70:7d:
        db:85:10:6b:ff:0d:e2:a5:d6:14:6e:0c:9f:58:35:5b:b7:6e:
        45:08:d2:91:65:cd:93:74:f2:a4:f0:35:26:46:5c:e1:3e:9c:
        c2:54:bd:fb:a7:56:df:fa:86:35:e1:99:ea:3a:1a:2b:ad:91:
        fd:48:cb:96:13:d4:11:d3:03:03:d5:79:60:78:e1:74:70:7a:
        52:ac:b3:05:21:e8:fd:bf:7e:1e:ac:90:50:1d:bc:79:0c:0a:
        3c:6e:5b:e9:ce:41:05:e8:d6:27:65:a4:b7:cd:59:43:ef:e1:
        1b:22:e7:cb:a2:d0:1d:47:bc:b5:2b:71:94:6f:37:6b:2d:fb:
        f9:b2:f5:43
-----BEGIN CERTIFICATE-----
MIIDTDCCAjSgAwIBAgIEEjRWejANBgkqhkiG9w0BAQsFADAnMSUwIwYDVQQDDBxT
UksxX3NoYTI1Nl8yMDQ4XzY1NTM3X3YzX2NhMCAXDTIzMDgxNTExNDMxNloYDzIx
MjIwNzIyMTE0MzE2WjAqMSgwJgYDVQQDDB9JTUcxXzFfc2hhMjU2XzIwNDhfNjU1
MzdfdjNfdXNyMIIBIjANBgkqhkiG9w0BAQEFAAOCAQ8AMIIBCgKCAQEAybEEZx4K
3JracmrcaftzYkWrUAAI4n7mNlr3y6/TsGamPwwLZX2IgnvdaufMk8tKCWPxAP73
QJQeu3h47DRAyVE7XC/rCg4+V71OmYkeWjWZBFSZPdurow6JxSVM/iPvk9NyCH5v
0Jecf+eohJ/FgfGDRf126/IGHZjpbUXP3W/HVfZ3pZI+AHD4ytH9xrSwFP/IG3mQ
XJ0c8wyLErOjmgs0yp0NivQt54rh+xRYbeKJGBRFhteqz3Csk20AFAbhwRjcCCDn
QJyXBbjAcsmGYUAOsx0VYn6byTsGpY44SoUF6wP83ryrPDaqqNSrA6SS7XVTqSB6
35ihjCHs/+WTOQIDAQABo3sweTAJBgNVHRMEAjAAMCwGCWCGSAGG+EIBDQQfFh1P
cGVuU1NMIEdlbmVyYXRlZCBDZXJ0aWZpY2F0ZTAdBgNVHQ4EFgQUbeDM+7LyRWMg
qzJ9yrouX373jXAwHwYDVR0jBBgwFoAU+uDZVxf3tSIIeL7ujJtnObQgIhAwDQYJ
KoZIhvcNAQELBQADggEBAHxIZYYq2cs6xLHpAWUrVwwqPqAjCaYOrxIgAjgv7yJs
FM+n77ZA834DXacTFph/Nhs8CEATjQlPpgRhOQvLW6LzVFBvf+wAptpQm5DtA16G
+NHpwREs+qsN8MmjtsRE8AcNtezXdjL5COvw1tODFQDaCUAZKwlE4sAjUNdwfduF
EGv/DeKl1hRuDJ9YNVu3bkUI0pFlzZN08qTwNSZGXOE+nMJUvfunVt/6hjXhmeo6
Giutkf1Iy5YT1BHTAwPVeWB44XRwelKsswUh6P2/fh6skFAdvHkMCjxuW+nOQQXo
1idlpLfNWUPv4Rsi58ui0B1HvLUrcZRvN2st+/my9UM=
-----END CERTIFICATE-----
