Certificate:
    Data:
        Version: 3 (0x2)
        Serial Number: 305419901 (0x1234567d)
        Signature Algorithm: sha256WithRSAEncryption
        Issuer: CN=SRK2_sha256_2048_65537_v3_ca
        Validity
            Not Before: Aug 15 11:43:16 2023 GMT
            Not After : Jul 22 11:43:16 2122 GMT
        Subject: CN=IMG2_1_sha256_2048_65537_v3_usr
        Subject Public Key Info:
            Public Key Algorithm: rsaEncryption
                Public-Key: (2048 bit)
                Modulus:
                    00:a9:65:c1:8f:f0:73:36:86:4e:c8:78:59:be:b8:
                    e6:51:4e:07:23:b7:5e:c1:fa:e6:17:b9:5a:94:a5:
                    13:bc:97:d8:8d:5b:d8:d2:2f:69:83:e7:d9:0c:26:
                    66:f6:6c:63:3a:3b:ad:3f:4b:92:a3:b0:48:c1:28:
                    91:bf:91:56:28:ea:36:e2:a3:1a:a5:72:5e:49:c5:
                    95:e9:db:b2:1f:27:70:84:2c:fc:94:96:c9:d8:1c:
                    8d:9d:2d:b5:8e:9c:90:cf:0f:bb:ca:5c:8c:1e:29:
                    aa:56:1d:6e:fc:c1:38:2f:d4:c0:3d:bb:c1:ac:c7:
                    17:c2:07:94:99:9a:fb:eb:38:a1:fb:02:f2:3c:a4:
                    af:89:a5:1f:9d:9d:fb:fa:e2:b7:7f:ce:a9:82:56:
                    bf:f9:e9:7c:c5:af:3e:a0:2d:c4:fe:b5:8e:70:72:
                    4d:a8:31:c4:eb:ae:58:a4:20:ad:4d:da:90:44:ad:
                    16:29:68:0e:0a:33:7a:ca:16:45:37:11:d9:d9:18:
                    ec:0b:63:a8:64:e3:fd:53:30:1f:22:9f:04:5f:66:
                    7b:9e:0c:6f:d4:a6:f8:9a:58:1f:20:e4:ec:f3:e8:
                    ab:af:95:5d:e4:cc:c7:f9:d3:36:d0:ff:32:77:58:
                    8c:13:c6:8e:c6:ec:3c:d0:b8:af:e1:f2:2f:f6:30:
                    26:0f
                Exponent: 65537 (0x10001)
        X509v3 extensions:
            X509v3 Basic Constraints: 
                CA:FALSE
            Netscape Comment: 
                OpenSSL Generated Certificate
            X509v3 Subject Key Identifier: 
                56:B2:FB:13:D8:C2:4D:BC:92:54:C5:0F:30:A1:A2:1B:1F:52:3E:3B
            X509v3 Authority Key Identifier: 
                75:C5:85:57:84:65:B0:57:41:E0:88:AE:83:C3:38:FF:31:B4:E2:90
    Signature Algorithm: sha256WithRSAEncryption
    Signature Value:
        03:cd:91:3a:f1:5a:43:b7:d5:0f:c0:a9:64:e0:32:b5:17:d6:
        e3:a3:1f:ea:fd:31:2a:49:8e:ba:bc:49:2e:ad:9d:6a:f1:43:
        3e:ed:7f:e9:17:72:62:0f:ba:be:23:a5:7d:10:25:2d:c9:d0:
        df:c5:cc:77:3a:23:27:83:e3:26:8b:30:65:39:dd:d7:19:02:
        e9:f9:c8:24:e7:ab:8c:bd:09:c5:8f:d2:bb:87:d1:85:3f:17:
        cc:3c:d1:80:97:33:17:11:d1:24:7b:4b:32:08:e9:16:c1:43:
        de:96:8a:72:cc:dc:3b:e9:39:2f:c3:0c:f9:ab:56:d1:15:5f:
        3e:ed:07:f7:4c:18:d0:62:11:b4:6e:65:b4:2e:c8:57:a2:be:
        ea:3c:09:5a:6b:2a:2d:1d:c8:45:66:de:02:cc:d2:c2:fa:0d:
        fb:86:92:43:09:6d:0f:6d:79:d4:37:69:11:43:09:13:be:d1:
        68:07:0b:3e:bb:5a:4d:6a:c1:43:2e:51:a0:06:42:8e:c5:d0:
        9a:0a:4f:86:fa:a8:4d:b2:36:b6:a0:95:2d:ba:18:84:88:33:
        73:25:c5:79:b9:80:33:79:01:33:8f:d6:65:38:dc:22:cd:74:
        ae:01:d0:ac:dd:30:d7:13:8c:b8:3d:50:0f:62:ab:80:8a:42:
        80:19:7c:cd
-----BEGIN CERTIFICATE-----
MIIDTDCCAjSgAwIBAgIEEjRWfTANBgkqhkiG9w0BAQsFADAnMSUwIwYDVQQDDBxT
UksyX3NoYTI1Nl8yMDQ4XzY1NTM3X3YzX2NhMCAXDTIzMDgxNTExNDMxNloYDzIx
MjIwNzIyMTE0MzE2WjAqMSgwJgYDVQQDDB9JTUcyXzFfc2hhMjU2XzIwNDhfNjU1
MzdfdjNfdXNyMIIBIjANBgkqhkiG9w0BAQEFAAOCAQ8AMIIBCgKCAQEAqWXBj/Bz
NoZOyHhZvrjmUU4HI7dewfrmF7lalKUTvJfYjVvY0i9pg+fZDCZm9mxjOjutP0uS
o7BIwSiRv5FWKOo24qMapXJeScWV6duyHydwhCz8lJbJ2ByNnS21jpyQzw+7ylyM
HimqVh1u/ME4L9TAPbvBrMcXwgeUmZr76zih+wLyPKSviaUfnZ37+uK3f86pgla/
+el8xa8+oC3E/rWOcHJNqDHE665YpCCtTdqQRK0WKWgOCjN6yhZFNxHZ2RjsC2Oo
ZOP9UzAfIp8EX2Z7ngxv1Kb4mlgfIOTs8+irr5Vd5MzH+dM20P8yd1iME8aOxuw8
0Liv4fIv9jAmDwIDAQABo3sweTAJBgNVHRMEAjAAMCwGCWCGSAGG+EIBDQQfFh1P
cGVuU1NMIEdlbmVyYXRlZCBDZXJ0aWZpY2F0ZTAdBgNVHQ4EFgQUVrL7E9jCTbyS
VMUPMKGiGx9SPjswHwYDVR0jBBgwFoAUdcWFV4RlsFdB4Iiug8M4/zG04pAwDQYJ
KoZIhvcNAQELBQADggEBAAPNkTrxWkO31Q/AqWTgMrUX1uOjH+r9MSpJjrq8SS6t
nWrxQz7tf+kXcmIPur4jpX0QJS3J0N/FzHc6IyeD4yaLMGU53dcZAun5yCTnq4y9
CcWP0ruH0YU/F8w80YCXMxcR0SR7SzII6RbBQ96WinLM3DvpOS/DDPmrVtEVXz7t
B/dMGNBiEbRuZbQuyFeivuo8CVprKi0dyEVm3gLM0sL6DfuGkkMJbQ9tedQ3aRFD
CRO+0WgHCz67Wk1qwUMuUaAGQo7F0JoKT4b6qE2yNraglS26GISIM3MlxXm5gDN5
ATOP1mU43CLNdK4B0KzdMNcTjLg9UA9iq4CKQoAZfM0=
-----END CERTIFICATE-----
