Certificate:
    Data:
        Version: 3 (0x2)
        Serial Number: 305419904 (0x12345680)
        Signature Algorithm: sha256WithRSAEncryption
        Issuer: CN=SRK3_sha256_2048_65537_v3_ca
        Validity
            Not Before: Aug 15 11:43:17 2023 GMT
            Not After : Jul 22 11:43:17 2122 GMT
        Subject: CN=IMG3_1_sha256_2048_65537_v3_usr
        Subject Public Key Info:
            Public Key Algorithm: rsaEncryption
                Public-Key: (2048 bit)
                Modulus:
                    00:d1:b2:1a:72:3c:91:94:49:07:51:ba:57:6d:92:
                    6e:96:da:1f:97:a8:46:46:1f:1e:52:29:60:59:e0:
                    48:ad:9e:09:29:57:8b:9c:97:57:34:73:47:89:2f:
                    4f:5e:1e:6a:46:eb:98:7e:55:97:bb:90:af:c8:e9:
                    90:4e:78:91:f8:50:ea:b6:75:e6:37:fa:8c:4f:f3:
                    8e:f0:c8:72:ad:ce:0c:76:80:2c:e8:1a:8f:3b:70:
                    3f:ef:27:38:60:fc:a0:1c:3a:14:bd:22:35:b2:e0:
                    f6:81:e4:d9:14:e1:3d:79:11:7f:0f:cd:1f:a5:f9:
                    99:e5:cb:64:e6:47:02:6c:e7:76:e0:ab:10:3b:89:
                    11:86:c2:84:ee:e9:fc:eb:38:06:70:dc:29:66:71:
                    4b:37:1c:49:c8:c1:a7:9b:a0:ac:66:2c:d5:5a:f2:
                    dd:5c:48:5f:56:a4:af:00:94:65:05:65:31:36:74:
                    5f:22:62:f3:4c:51:1d:97:1a:a6:63:57:1f:cf:42:
                    2f:3e:20:a7:0c:21:ec:33:7c:79:93:7d:da:ac:e1:
                    18:c8:4a:b6:31:4f:5c:34:d0:0c:e7:8b:b0:4b:a4:
                    78:43:75:4f:ff:e7:06:14:5c:4f:d8:b7:0e:2c:af:
                    ed:fa:25:3c:34:ea:41:39:9b:6c:8a:6a:b2:08:1f:
                    d1:37
                Exponent: 65537 (0x10001)
        X509v3 extensions:
            X509v3 Basic Constraints: 
                CA:FALSE
            Netscape Comment: 
                OpenSSL Generated Certificate
            X509v3 Subject Key Identifier: 
                F6:91:B9:4D:3B:5A:D6:CD:AF:C3:CA:9B:3C:C3:8C:D2:AF:2C:BA:D7
            X509v3 Authority Key Identifier: 
                C9:26:8F:5D:2E:0A:98:53:2D:2D:7B:B1:F6:4A:CE:ED:B8:39:E8:7A
    Signature Algorithm: sha256WithRSAEncryption
    Signature Value:
        3a:04:f9:86:d4:8a:25:51:f4:f3:19:8e:6a:ff:85:9d:5e:27:
        0d:1a:89:9b:b2:ab:71:4c:10:65:1b:b3:18:3c:2c:3b:c6:83:
        41:15:31:d5:b1:e0:31:ba:a6:d9:d4:ea:d4:ed:f4:05:53:6d:
        b0:5e:ef:08:11:27:a8:63:4f:b6:7a:56:cc:9e:59:db:fc:be:
        08:cc:bd:24:81:f1:86:a1:bf:c1:75:18:3e:d7:61:84:94:ec:
        68:87:ff:19:20:a5:fc:13:0b:95:cc:fe:08:17:aa:f3:84:46:
        44:f5:53:28:fd:f1:68:e1:75:e2:54:38:2b:cc:b4:14:ae:ae:
        40:c1:a9:49:db:39:6d:f3:c6:fd:ff:79:44:97:14:65:9a:0c:
        c7:56:10:30:0b:c1:43:54:98:87:ba:c3:9d:8c:d9:02:0f:4b:
        3a:e8:42:44:67:60:bf:08:ec:e3:30:fb:2f:e5:ec:96:fa:c8:
        01:e4:d3:e5:77:b9:65:0e:e5:c6:f9:89:1f:e5:66:ac:86:07:
        06:dc:75:33:96:1b:6e:77:fa:87:84:16:b7:35:9c:59:bc:d9:
        51:af:e5:c2:4d:af:0e:a5:5b:c7:8b:cd:46:a8:5f:16:f8:9c:
        be:92:3e:75:3d:52:ef:9a:68:a4:0d:8d:5b:4a:17:9a:3c:ec:
        be:ee:82:54
-----BEGIN CERTIFICATE-----
MIIDTDCCAjSgAwIBAgIEEjRWgDANBgkqhkiG9w0BAQsFADAnMSUwIwYDVQQDDBxT
UkszX3NoYTI1Nl8yMDQ4XzY1NTM3X3YzX2NhMCAXDTIzMDgxNTExNDMxN1oYDzIx
MjIwNzIyMTE0MzE3WjAqMSgwJgYDVQQDDB9JTUczXzFfc2hhMjU2XzIwNDhfNjU1
MzdfdjNfdXNyMIIBIjANBgkqhkiG9w0BAQEFAAOCAQ8AMIIBCgKCAQEA0bIacjyR
lEkHUbpXbZJultofl6hGRh8eUilgWeBIrZ4JKVeLnJdXNHNHiS9PXh5qRuuYflWX
u5CvyOmQTniR+FDqtnXmN/qMT/OO8Mhyrc4MdoAs6BqPO3A/7yc4YPygHDoUvSI1
suD2geTZFOE9eRF/D80fpfmZ5ctk5kcCbOd24KsQO4kRhsKE7un86zgGcNwpZnFL
NxxJyMGnm6CsZizVWvLdXEhfVqSvAJRlBWUxNnRfImLzTFEdlxqmY1cfz0IvPiCn
DCHsM3x5k33arOEYyEq2MU9cNNAM54uwS6R4Q3VP/+cGFFxP2LcOLK/t+iU8NOpB
OZtsimqyCB/RNwIDAQABo3sweTAJBgNVHRMEAjAAMCwGCWCGSAGG+EIBDQQfFh1P
cGVuU1NMIEdlbmVyYXRlZCBDZXJ0aWZpY2F0ZTAdBgNVHQ4EFgQU9pG5TTta1s2v
w8qbPMOM0q8sutcwHwYDVR0jBBgwFoAUySaPXS4KmFMtLXux9krO7bg56HowDQYJ
KoZIhvcNAQELBQADggEBADoE+YbUiiVR9PMZjmr/hZ1eJw0aiZuyq3FMEGUbsxg8
LDvGg0EVMdWx4DG6ptnU6tTt9AVTbbBe7wgRJ6hjT7Z6VsyeWdv8vgjMvSSB8Yah
v8F1GD7XYYSU7GiH/xkgpfwTC5XM/ggXqvOERkT1Uyj98WjhdeJUOCvMtBSurkDB
qUnbOW3zxv3/eUSXFGWaDMdWEDALwUNUmIe6w52M2QIPSzroQkRnYL8I7OMw+y/l
7Jb6yAHk0+V3uWUO5cb5iR/lZqyGBwbcdTOWG253+oeEFrc1nFm82VGv5cJNrw6l
W8eLzUaoXxb4nL6SPnU9Uu+aaKQNjVtKF5o87L7uglQ=
-----END CERTIFICATE-----
