Certificate:
    Data:
        Version: 3 (0x2)
        Serial Number: 305419896 (0x12345678)
        Signature Algorithm: sha256WithRSAEncryption
        Issuer: CN=CA1_sha256_2048_65537_v3_ca
        Validity
            Not Before: Aug 15 11:43:16 2023 GMT
            Not After : Jul 22 11:43:16 2122 GMT
        Subject: CN=SRK1_sha256_2048_65537_v3_ca
        Subject Public Key Info:
            Public Key Algorithm: rsaEncryption
                Public-Key: (2048 bit)
                Modulus:
                    00:dc:5e:69:0f:cf:70:ff:07:a0:82:be:67:01:0a:
                    d3:04:10:f5:a7:fb:c6:aa:69:ed:3b:a3:04:75:0f:
                    c2:39:93:b0:bf:1b:2c:f0:ae:93:6b:af:41:43:93:
                    4c:33:e4:b5:99:56:db:e7:74:e0:2a:ce:91:54:77:
                    22:d5:98:ea:26:34:e7:28:9a:b5:6a:50:f1:18:3e:
                    59:06:b3:94:8b:cf:60:bd:bc:2f:79:59:ad:71:8f:
                    cf:a8:aa:d3:ad:f5:1f:c0:0e:22:72:1a:65:56:62:
                    ad:bb:7c:33:c7:3c:25:ce:a9:dd:6c:31:f9:c0:92:
                    b1:47:86:71:5d:8d:01:8f:eb:31:cb:65:31:5b:0b:
                    12:0b:93:07:da:d6:d1:8e:9b:88:bd:90:ec:20:e5:
                    59:58:62:38:5f:9f:21:52:ba:82:a3:ca:8d:94:33:
                    24:12:d4:c6:91:f0:94:7e:ca:92:98:e5:08:9f:00:
                    36:7d:83:9b:38:7a:00:66:5e:9e:ee:8b:d0:3a:74:
                    8e:32:19:53:be:9f:60:54:15:e0:36:3b:27:42:7f:
                    08:53:e2:69:50:1a:6c:e2:ef:8d:3b:a7:fb:f3:e4:
                    c1:c9:70:35:4b:d4:48:7a:71:d5:2e:75:a3:8d:b9:
                    f9:a4:e4:bc:39:6f:21:bc:f0:bd:a0:fa:16:23:04:
                    96:15
                Exponent: 65537 (0x10001)
        X509v3 extensions:
            X509v3 Subject Key Identifier: 
                FA:E0:D9:57:17:F7:B5:22:08:78:BE:EE:8C:9B:67:39:B4:20:22:10
            X509v3 Authority Key Identifier: 
                keyid:BF:72:90:9E:62:96:66:D7:90:DE:45:64:79:9E:BD:93:DC:D1:EF:37
                DirName:/CN=CA1_sha256_2048_65537_v3_ca
                serial:4D:9C:49:8E:61:65:92:EE:E7:A1:40:36:5E:E0:A8:F2:64:17:CA:9B
            X509v3 Basic Constraints: critical
                CA:TRUE
            X509v3 Key Usage: 
                Certificate Sign
    Signature Algorithm: sha256WithRSAEncryption
    Signature Value:
        1e:68:29:fd:c2:d0:09:46:29:a0:21:0f:fd:45:39:c9:67:20:
        32:5c:c7:ee:b3:ec:97:2d:3f:be:34:b7:24:6c:3e:c9:6a:df:
        87:f3:e4:64:e6:6f:be:f4:d0:22:fd:c7:d1:17:e9:d3:8c:a7:
        84:f3:69:30:2a:2a:43:d4:37:5c:05:d6:f2:f7:a6:92:48:9a:
        20:6f:b0:fa:ba:3e:7a:3c:c4:28:64:d8:14:1c:6c:22:be:10:
        bf:77:b7:f0:a2:a3:6d:13:4c:cf:1a:13:bc:a0:8a:40:ee:e1:
        e1:48:2e:c6:99:a5:f5:82:13:91:21:27:fd:d2:36:f4:e9:70:
        b8:a4:9f:2c:93:88:b7:9f:d7:49:38:e1:a0:67:eb:06:b0:c9:
        34:c7:76:25:c1:b9:3e:fe:25:98:ee:7d:53:cb:27:7a:0e:c9:
        76:c8:72:a5:c5:e1:31:49:44:71:74:e5:6f:cc:70:74:fb:20:
        e3:bb:4c:76:1c:70:69:5f:45:9b:e6:6a:f9:a4:84:7b:02:2a:
        7a:09:50:e4:e4:4c:ba:b0:c6:62:c9:1a:12:3d:3b:20:7b:d7:
        a1:77:34:dd:d4:e1:f1:63:60:8c:53:18:f8:fa:69:05:a7:1b:
        68:d7:8a:e7:79:e4:8c:5f:8d:b9:35:3b:09:6d:23:3e:95:f5:
        47:77:fb:b3
-----BEGIN CERTIFICATE-----
MIIDcTCCAlmgAwIBAgIEEjRWeDANBgkqhkiG9w0BAQsFADAmMSQwIgYDVQQDFBtD
QTFfc2hhMjU2XzIwNDhfNjU1MzdfdjNfY2EwIBcNMjMwODE1MTE0MzE2WhgPMjEy
MjA3MjIxMTQzMTZaMCcxJTAjBgNVBAMMHFNSSzFfc2hhMjU2XzIwNDhfNjU1Mzdf
djNfY2EwggEiMA0GCSqGSIb3DQEBAQUAA4IBDwAwggEKAoIBAQDcXmkPz3D/B6CC
vmcBCtMEEPWn+8aqae07owR1D8I5k7C/GyzwrpNrr0FDk0wz5LWZVtvndOAqzpFU
dyLVmOomNOcomrVqUPEYPlkGs5SLz2C9vC95Wa1xj8+oqtOt9R/ADiJyGmVWYq27
fDPHPCXOqd1sMfnAkrFHhnFdjQGP6zHLZTFbCxILkwfa1tGOm4i9kOwg5VlYYjhf
nyFSuoKjyo2UMyQS1MaR8JR+ypKY5QifADZ9g5s4egBmXp7ui9A6dI4yGVO+n2BU
FeA2OydCfwhT4mlQGmzi7407p/vz5MHJcDVL1Eh6cdUudaONufmk5Lw5byG88L2g
+hYjBJYVAgMBAAGjgaMwgaAwHQYDVR0OBBYEFPrg2VcX97UiCHi+7oybZzm0ICIQ
MGEGA1UdIwRaMFiAFL9ykJ5ilmbXkN5FZHmevZPc0e83oSqkKDAmMSQwIgYDVQQD
FBtDQTFfc2hhMjU2XzIwNDhfNjU1MzdfdjNfY2GCFE2cSY5hZZLu56FANl7gqPJk
F8qbMA8GA1UdEwEB/wQFMAMBAf8wCwYDVR0PBAQDAgIEMA0GCSqGSIb3DQEBCwUA
A4IBAQAeaCn9wtAJRimgIQ/9RTnJZyAyXMfus+yXLT++NLckbD7Jat+H8+Rk5m++
9NAi/cfRF+nTjKeE82kwKipD1DdcBdby96aSSJogb7D6uj56PMQoZNgUHGwivhC/
d7fwoqNtE0zPGhO8oIpA7uHhSC7GmaX1ghORISf90jb06XC4pJ8sk4i3n9dJOOGg
Z+sGsMk0x3Ylwbk+/iWY7n1Tyyd6Dsl2yHKlxeExSURxdOVvzHB0+yDju0x2HHBp
X0Wb5mr5pIR7Aip6CVDk5Ey6sMZiyRoSPTsge9ehdzTd1OHxY2CMUxj4+mkFpxto
14rneeSMX425NTsJbSM+lfVHd/uz
-----END CERTIFICATE-----
