Certificate:
    Data:
        Version: 3 (0x2)
        Serial Number: 305419899 (0x1234567b)
        Signature Algorithm: sha256WithRSAEncryption
        Issuer: CN=CA1_sha256_2048_65537_v3_ca
        Validity
            Not Before: Aug 15 11:43:16 2023 GMT
            Not After : Jul 22 11:43:16 2122 GMT
        Subject: CN=SRK2_sha256_2048_65537_v3_ca
        Subject Public Key Info:
            Public Key Algorithm: rsaEncryption
                Public-Key: (2048 bit)
                Modulus:
                    00:98:4c:11:1a:5e:e2:2b:1a:f3:e9:77:9a:12:69:
                    b6:96:79:dd:b9:0a:2c:e6:73:b2:ab:dc:42:31:4a:
                    c2:2d:83:3c:f3:e5:7e:7d:fd:ea:8c:79:76:8f:15:
                    16:5d:29:d7:a3:39:7e:4a:6a:8d:fe:de:d7:95:01:
                    c3:41:07:02:26:36:8e:14:3c:9c:ee:ab:81:47:cb:
                    b6:10:87:04:90:ed:4f:f4:4a:6f:79:3a:bc:5b:6e:
                    f4:67:b3:c4:c6:87:d8:b8:6d:e3:1c:70:dc:eb:ae:
                    4a:29:16:1c:0c:82:69:93:ec:99:c9:ee:1d:b4:2f:
                    ce:bc:80:8c:35:9a:44:5e:fa:55:c9:a7:26:dc:58:
                    a3:38:d6:27:18:e9:db:5a:db:66:93:31:d6:34:0a:
                    8b:62:c8:7d:9c:0c:a5:77:35:4e:bb:51:8d:82:aa:
                    0c:23:e5:9a:89:3a:52:90:e4:01:5f:aa:78:52:61:
                    a3:b6:69:a7:42:04:92:60:62:e8:55:0b:19:23:e1:
                    25:74:a3:00:d7:36:eb:34:9c:91:0a:75:e1:5a:28:
                    42:df:92:1a:c9:99:b2:d6:f6:89:d4:58:4f:16:86:
                    5c:a5:6b:3d:ac:c3:17:76:5b:a0:db:85:48:dc:cd:
                    7d:6d:bb:04:75:30:a5:ab:36:3c:d4:a5:7f:85:b7:
                    d3:a7
                Exponent: 65537 (0x10001)
        X509v3 extensions:
            X509v3 Subject Key Identifier: 
                75:C5:85:57:84:65:B0:57:41:E0:88:AE:83:C3:38:FF:31:B4:E2:90
            X509v3 Authority Key Identifier: 
                keyid:BF:72:90:9E:62:96:66:D7:90:DE:45:64:79:9E:BD:93:DC:D1:EF:37
                DirName:/CN=CA1_sha256_2048_65537_v3_ca
                serial:4D:9C:49:8E:61:65:92:EE:E7:A1:40:36:5E:E0:A8:F2:64:17:CA:9B
            X509v3 Basic Constraints: critical
                CA:TRUE
            X509v3 Key Usage: 
                Certificate Sign
    Signature Algorithm: sha256WithRSAEncryption
    Signature Value:
        89:2d:01:31:45:34:a2:a4:ef:33:4c:4d:3e:03:50:f6:92:da:
        48:c8:24:51:a0:e5:c5:a6:97:a9:44:13:53:c0:98:31:42:8b:
        e8:75:69:b0:e7:0e:53:19:0b:45:ad:88:cd:b3:74:9e:26:39:
        a9:a9:1a:f2:11:51:9d:b5:ab:2b:47:42:c5:94:9a:f0:38:29:
        39:2e:c5:ba:9d:82:ae:25:86:da:37:c5:1e:5c:ff:ae:79:29:
        90:1d:68:95:2c:83:52:c0:90:75:c4:77:58:92:ce:96:13:8e:
        62:f2:91:48:67:9d:90:b7:36:bb:59:b2:93:10:21:28:52:e1:
        e3:5d:4c:b1:18:a1:3c:6b:75:73:e4:af:2d:8a:73:28:c3:a7:
        6a:7e:5d:c4:9f:64:85:60:c0:e2:aa:f9:b3:bf:fc:cb:32:a9:
        78:b2:7b:32:3e:c7:5a:5c:e3:7c:48:9f:68:9a:06:71:55:20:
        c8:ea:86:d2:73:30:f0:ac:51:72:15:7c:3c:99:cf:bc:06:35:
        68:6c:63:fd:97:bf:a8:41:73:e0:cc:6a:47:ab:40:59:fe:13:
        4d:f7:34:b5:d2:b2:e4:34:d1:a8:57:4e:0d:ec:03:c2:70:88:
        da:af:be:15:e0:bf:f9:b3:08:bc:54:d2:84:d4:45:8f:3d:29:
        c4:e1:5c:c0
-----BEGIN CERTIFICATE-----
MIIDcTCCAlmgAwIBAgIEEjRWezANBgkqhkiG9w0BAQsFADAmMSQwIgYDVQQDFBtD
QTFfc2hhMjU2XzIwNDhfNjU1MzdfdjNfY2EwIBcNMjMwODE1MTE0MzE2WhgPMjEy
MjA3MjIxMTQzMTZaMCcxJTAjBgNVBAMMHFNSSzJfc2hhMjU2XzIwNDhfNjU1Mzdf
djNfY2EwggEiMA0GCSqGSIb3DQEBAQUAA4IBDwAwggEKAoIBAQCYTBEaXuIrGvPp
d5oSabaWed25Cizmc7Kr3EIxSsItgzzz5X59/eqMeXaPFRZdKdejOX5Kao3+3teV
AcNBBwImNo4UPJzuq4FHy7YQhwSQ7U/0Sm95OrxbbvRns8TGh9i4beMccNzrrkop
FhwMgmmT7JnJ7h20L868gIw1mkRe+lXJpybcWKM41icY6dta22aTMdY0CotiyH2c
DKV3NU67UY2Cqgwj5ZqJOlKQ5AFfqnhSYaO2aadCBJJgYuhVCxkj4SV0owDXNus0
nJEKdeFaKELfkhrJmbLW9onUWE8Whlylaz2swxd2W6DbhUjczX1tuwR1MKWrNjzU
pX+Ft9OnAgMBAAGjgaMwgaAwHQYDVR0OBBYEFHXFhVeEZbBXQeCIroPDOP8xtOKQ
MGEGA1UdIwRaMFiAFL9ykJ5ilmbXkN5FZHmevZPc0e83oSqkKDAmMSQwIgYDVQQD
FBtDQTFfc2hhMjU2XzIwNDhfNjU1MzdfdjNfY2GCFE2cSY5hZZLu56FANl7gqPJk
F8qbMA8GA1UdEwEB/wQFMAMBAf8wCwYDVR0PBAQDAgIEMA0GCSqGSIb3DQEBCwUA
A4IBAQCJLQExRTSipO8zTE0+A1D2ktpIyCRRoOXFppepRBNTwJgxQovodWmw5w5T
GQtFrYjNs3SeJjmpqRryEVGdtasrR0LFlJrwOCk5LsW6nYKuJYbaN8UeXP+ueSmQ
HWiVLINSwJB1xHdYks6WE45i8pFIZ52Qtza7WbKTECEoUuHjXUyxGKE8a3Vz5K8t
inMow6dqfl3En2SFYMDiqvmzv/zLMql4snsyPsdaXON8SJ9omgZxVSDI6obSczDw
rFFyFXw8mc+8BjVobGP9l7+oQXPgzGpHq0BZ/hNN9zS10rLkNNGoV04N7APCcIja
r74V4L/5swi8VNKE1EWPPSnE4VzA
-----END CERTIFICATE-----
