Certificate:
    Data:
        Version: 3 (0x2)
        Serial Number: 305419903 (0x1234567f)
        Signature Algorithm: sha256WithRSAEncryption
        Issuer: CN=SRK3_sha256_2048_65537_v3_ca
        Validity
            Not Before: Aug 15 11:43:17 2023 GMT
            Not After : Jul 22 11:43:17 2122 GMT
        Subject: CN=CSF3_1_sha256_2048_65537_v3_usr
        Subject Public Key Info:
            Public Key Algorithm: rsaEncryption
                Public-Key: (2048 bit)
                Modulus:
                    00:b9:ad:ed:98:1e:8a:31:a3:a5:d1:0f:a2:26:3b:
                    94:3e:24:ab:91:1d:bb:d9:3e:ba:98:b4:de:7f:ac:
                    50:92:4d:c5:96:0e:3f:ce:95:0b:18:20:e8:bd:be:
                    0d:aa:11:9e:8e:62:9e:8a:99:b7:e5:2e:93:bc:7d:
                    a4:87:ea:0b:d4:17:7d:7b:9a:ff:3b:5f:c2:e8:06:
                    6a:e2:05:12:ce:21:7a:72:7e:18:fa:19:e0:42:5c:
                    c8:a2:19:ca:ad:5d:cd:e1:a9:79:f6:2c:78:e6:57:
                    6a:92:f1:26:7f:ab:3f:3d:b9:43:37:0b:55:13:9d:
                    9f:02:ec:2d:95:02:29:fe:41:9c:4e:74:75:2d:40:
                    4d:10:cb:fb:4d:13:0a:8e:03:3d:b7:20:a2:a2:d7:
                    b4:bf:22:e9:cb:ca:44:17:c0:a2:a2:3a:4c:be:23:
                    12:54:47:67:ea:94:f2:f1:8f:c2:05:96:32:d1:b2:
                    b2:08:f9:2a:51:ac:8c:16:1b:76:f6:71:e6:a0:56:
                    3f:82:f7:55:e1:ad:02:fe:b3:a0:ae:86:c2:75:9d:
                    b4:b0:7c:d7:bb:f0:95:c7:84:46:86:9e:5f:3f:b7:
                    a8:6f:45:08:6c:d8:41:28:f8:72:3c:38:47:1b:f5:
                    f8:18:4e:a1:b3:f7:1f:f0:16:da:84:e4:01:bc:fe:
                    11:77
                Exponent: 65537 (0x10001)
        X509v3 extensions:
            X509v3 Basic Constraints: 
                CA:FALSE
            Netscape Comment: 
                OpenSSL Generated Certificate
            X509v3 Subject Key Identifier: 
                4B:BA:26:0C:6F:11:38:1F:C2:4E:FC:1F:18:94:FD:6B:B0:39:20:37
            X509v3 Authority Key Identifier: 
                C9:26:8F:5D:2E:0A:98:53:2D:2D:7B:B1:F6:4A:CE:ED:B8:39:E8:7A
    Signature Algorithm: sha256WithRSAEncryption
    Signature Value:
        94:10:75:a5:dd:4e:1d:88:b9:a1:6f:44:00:20:4b:90:cf:9a:
        7e:60:6b:77:82:21:84:3a:69:fc:49:df:4f:0d:34:a3:1e:cc:
        7a:df:08:35:fb:80:3e:3d:4e:2e:9c:9b:01:75:7f:df:56:61:
        f3:56:c3:22:c7:dd:1f:b4:44:f7:7c:59:8c:f9:c6:96:0b:ad:
        9b:a3:e7:26:a9:13:28:34:02:2f:d7:37:91:27:80:8a:dc:84:
        ee:8d:43:b7:01:a1:55:89:ed:b7:75:68:a4:12:d2:8e:d8:4a:
        cd:ed:a8:7d:33:1a:6d:ba:44:75:26:4d:c7:25:68:df:e3:6c:
        ac:c3:07:67:ea:64:72:56:a0:ef:6c:1d:9a:3e:76:e5:57:ec:
        48:d2:83:0f:ab:ff:5f:d2:10:4f:8a:3b:ab:38:db:b2:ab:65:
        de:2e:b7:92:80:b8:6d:62:24:f1:33:60:83:19:bd:61:fe:03:
        b7:7b:41:69:d4:22:2f:60:4f:24:5d:c9:11:09:8d:db:99:05:
        df:68:da:20:54:45:25:60:1f:75:65:3e:63:1d:b1:30:30:20:
        b2:50:08:4d:ff:2c:19:a7:fb:e6:b2:d9:96:3b:9c:be:a6:c9:
        c1:4c:03:8e:d6:9d:24:54:60:d5:5b:90:87:54:b2:23:f1:94:
        fe:fd:06:81
-----BEGIN CERTIFICATE-----
MIIDTDCCAjSgAwIBAgIEEjRWfzANBgkqhkiG9w0BAQsFADAnMSUwIwYDVQQDDBxT
UkszX3NoYTI1Nl8yMDQ4XzY1NTM3X3YzX2NhMCAXDTIzMDgxNTExNDMxN1oYDzIx
MjIwNzIyMTE0MzE3WjAqMSgwJgYDVQQDDB9DU0YzXzFfc2hhMjU2XzIwNDhfNjU1
MzdfdjNfdXNyMIIBIjANBgkqhkiG9w0BAQEFAAOCAQ8AMIIBCgKCAQEAua3tmB6K
MaOl0Q+iJjuUPiSrkR272T66mLTef6xQkk3Flg4/zpULGCDovb4NqhGejmKeipm3
5S6TvH2kh+oL1Bd9e5r/O1/C6AZq4gUSziF6cn4Y+hngQlzIohnKrV3N4al59ix4
5ldqkvEmf6s/PblDNwtVE52fAuwtlQIp/kGcTnR1LUBNEMv7TRMKjgM9tyCiote0
vyLpy8pEF8CiojpMviMSVEdn6pTy8Y/CBZYy0bKyCPkqUayMFht29nHmoFY/gvdV
4a0C/rOgrobCdZ20sHzXu/CVx4RGhp5fP7eob0UIbNhBKPhyPDhHG/X4GE6hs/cf
8BbahOQBvP4RdwIDAQABo3sweTAJBgNVHRMEAjAAMCwGCWCGSAGG+EIBDQQfFh1P
cGVuU1NMIEdlbmVyYXRlZCBDZXJ0aWZpY2F0ZTAdBgNVHQ4EFgQUS7omDG8ROB/C
TvwfGJT9a7A5IDcwHwYDVR0jBBgwFoAUySaPXS4KmFMtLXux9krO7bg56HowDQYJ
KoZIhvcNAQELBQADggEBAJQQdaXdTh2IuaFvRAAgS5DPmn5ga3eCIYQ6afxJ308N
NKMezHrfCDX7gD49Ti6cmwF1f99WYfNWwyLH3R+0RPd8WYz5xpYLrZuj5yapEyg0
Ai/XN5EngIrchO6NQ7cBoVWJ7bd1aKQS0o7YSs3tqH0zGm26RHUmTcclaN/jbKzD
B2fqZHJWoO9sHZo+duVX7EjSgw+r/1/SEE+KO6s427KrZd4ut5KAuG1iJPEzYIMZ
vWH+A7d7QWnUIi9gTyRdyREJjduZBd9o2iBURSVgH3VlPmMdsTAwILJQCE3/LBmn
++ay2ZY7nL6mycFMA47WnSRUYNVbkIdUsiPxlP79BoE=
-----END CERTIFICATE-----
