Certificate:
    Data:
        Version: 3 (0x2)
        Serial Number: 305419902 (0x1234567e)
        Signature Algorithm: sha256WithRSAEncryption
        Issuer: CN=CA1_sha256_2048_65537_v3_ca
        Validity
            Not Before: Aug 15 11:43:16 2023 GMT
            Not After : Jul 22 11:43:16 2122 GMT
        Subject: CN=SRK3_sha256_2048_65537_v3_ca
        Subject Public Key Info:
            Public Key Algorithm: rsaEncryption
                Public-Key: (2048 bit)
                Modulus:
                    00:ba:ec:0c:65:64:08:28:8f:a0:0c:17:be:a4:a6:
                    7e:a0:0c:35:a8:2c:5c:a4:19:2c:a9:76:28:8c:01:
                    8d:a3:aa:53:57:f5:70:de:f1:fc:89:ce:a2:bb:15:
                    5d:74:f6:5b:fc:cf:02:7d:1f:02:6d:af:5a:2f:b8:
                    24:f3:2c:7a:05:e0:81:91:e3:00:32:db:42:ba:31:
                    f4:40:eb:ec:a2:89:c1:8b:8a:a7:f6:4a:47:c7:af:
                    b7:9b:90:12:c9:e2:f1:ed:1c:b7:90:e6:3e:92:d2:
                    0a:c2:f1:f0:dd:fa:52:32:f5:c4:e5:d1:f8:2a:3b:
                    86:fd:67:9a:68:70:a4:a7:ec:ba:50:45:8d:70:e4:
                    a6:bc:02:e1:ab:54:93:b7:3b:b5:56:e8:0f:1c:e0:
                    f9:cc:c5:66:e4:c8:4b:22:ef:14:e0:47:b6:a5:93:
                    74:4a:e7:c9:f5:ac:2e:bd:fe:72:42:d8:e2:7f:08:
                    00:b3:34:9b:c7:7d:8b:25:ae:43:45:38:a3:15:70:
                    ac:eb:75:4e:a6:7b:3f:2e:35:f8:b8:59:3f:62:4b:
                    7e:72:10:be:a8:4d:92:5a:37:d0:87:09:48:9e:74:
                    6b:0f:3a:f3:04:90:a9:22:81:57:4b:7e:ff:d6:da:
                    c2:33:90:d4:f7:a5:87:40:9d:dd:3f:f1:98:36:dc:
                    7e:b9
                Exponent: 65537 (0x10001)
        X509v3 extensions:
            X509v3 Subject Key Identifier: 
                C9:26:8F:5D:2E:0A:98:53:2D:2D:7B:B1:F6:4A:CE:ED:B8:39:E8:7A
            X509v3 Authority Key Identifier: 
                keyid:BF:72:90:9E:62:96:66:D7:90:DE:45:64:79:9E:BD:93:DC:D1:EF:37
                DirName:/CN=CA1_sha256_2048_65537_v3_ca
                serial:4D:9C:49:8E:61:65:92:EE:E7:A1:40:36:5E:E0:A8:F2:64:17:CA:9B
            X509v3 Basic Constraints: critical
                CA:TRUE
            X509v3 Key Usage: 
                Certificate Sign
    Signature Algorithm: sha256WithRSAEncryption
    Signature Value:
        0a:62:ba:ed:72:2d:44:82:58:76:67:68:94:93:ab:d6:ea:6a:
        4e:7f:28:52:d1:cc:7e:c1:0d:e1:66:25:5f:38:73:29:7a:33:
        34:4a:13:5d:e6:63:36:54:57:58:4a:dc:71:1d:45:bb:8f:43:
        42:bc:56:16:8b:db:4e:a8:33:b7:19:dd:b0:6d:7d:68:5a:3f:
        93:19:bb:48:8b:9b:32:23:54:f7:00:4a:04:c7:cb:9f:de:4d:
        14:9c:c9:cb:3a:98:4f:6b:76:de:92:d7:cb:0b:17:02:0b:b2:
        3a:fc:a0:a7:93:30:07:4f:3e:58:bc:8b:52:65:25:6b:40:45:
        4e:d6:c6:98:c4:ca:62:68:38:59:5d:01:7f:81:36:c6:aa:c1:
        73:bb:a1:b5:03:42:e3:07:29:a9:65:33:d9:1c:c4:34:78:f0:
        b0:9f:85:ca:f4:9b:2c:e6:54:82:54:0a:dd:86:4c:46:e3:f4:
        31:fc:c9:ee:a6:3f:07:d2:f8:83:e7:ee:a1:6f:63:8f:ae:13:
        7e:2f:c6:bd:5b:42:35:69:65:88:7c:16:86:b3:b9:27:0a:07:
        52:1d:05:8d:2a:55:62:75:1a:6f:eb:4d:76:df:53:2c:26:8e:
        17:4e:1f:3b:96:a2:54:59:d2:0e:4c:02:8a:6e:3a:d4:bc:95:
        58:89:50:0f
-----BEGIN CERTIFICATE-----
MIIDcTCCAlmgAwIBAgIEEjRWfjANBgkqhkiG9w0BAQsFADAmMSQwIgYDVQQDFBtD
QTFfc2hhMjU2XzIwNDhfNjU1MzdfdjNfY2EwIBcNMjMwODE1MTE0MzE2WhgPMjEy
MjA3MjIxMTQzMTZaMCcxJTAjBgNVBAMMHFNSSzNfc2hhMjU2XzIwNDhfNjU1Mzdf
djNfY2EwggEiMA0GCSqGSIb3DQEBAQUAA4IBDwAwggEKAoIBAQC67AxlZAgoj6AM
F76kpn6gDDWoLFykGSypdiiMAY2jqlNX9XDe8fyJzqK7FV109lv8zwJ9HwJtr1ov
uCTzLHoF4IGR4wAy20K6MfRA6+yiicGLiqf2SkfHr7ebkBLJ4vHtHLeQ5j6S0grC
8fDd+lIy9cTl0fgqO4b9Z5pocKSn7LpQRY1w5Ka8AuGrVJO3O7VW6A8c4PnMxWbk
yEsi7xTgR7alk3RK58n1rC69/nJC2OJ/CACzNJvHfYslrkNFOKMVcKzrdU6mez8u
Nfi4WT9iS35yEL6oTZJaN9CHCUiedGsPOvMEkKkigVdLfv/W2sIzkNT3pYdAnd0/
8Zg23H65AgMBAAGjgaMwgaAwHQYDVR0OBBYEFMkmj10uCphTLS17sfZKzu24Oeh6
MGEGA1UdIwRaMFiAFL9ykJ5ilmbXkN5FZHmevZPc0e83oSqkKDAmMSQwIgYDVQQD
FBtDQTFfc2hhMjU2XzIwNDhfNjU1MzdfdjNfY2GCFE2cSY5hZZLu56FANl7gqPJk
F8qbMA8GA1UdEwEB/wQFMAMBAf8wCwYDVR0PBAQDAgIEMA0GCSqGSIb3DQEBCwUA
A4IBAQAKYrrtci1Eglh2Z2iUk6vW6mpOfyhS0cx+wQ3hZiVfOHMpejM0ShNd5mM2
VFdYStxxHUW7j0NCvFYWi9tOqDO3Gd2wbX1oWj+TGbtIi5syI1T3AEoEx8uf3k0U
nMnLOphPa3bektfLCxcCC7I6/KCnkzAHTz5YvItSZSVrQEVO1saYxMpiaDhZXQF/
gTbGqsFzu6G1A0LjBympZTPZHMQ0ePCwn4XK9Jss5lSCVArdhkxG4/Qx/Mnupj8H
0viD5+6hb2OPrhN+L8a9W0I1aWWIfBaGs7knCgdSHQWNKlVidRpv601231MsJo4X
Th87lqJUWdIOTAKKbjrUvJVYiVAP
-----END CERTIFICATE-----
