Certificate:
    Data:
        Version: 3 (0x2)
        Serial Number: 305419905 (0x12345681)
        Signature Algorithm: sha256WithRSAEncryption
        Issuer: CN=CA1_sha256_2048_65537_v3_ca
        Validity
            Not Before: Aug 15 11:43:17 2023 GMT
            Not After : Jul 22 11:43:17 2122 GMT
        Subject: CN=SRK4_sha256_2048_65537_v3_ca
        Subject Public Key Info:
            Public Key Algorithm: rsaEncryption
                Public-Key: (2048 bit)
                Modulus:
                    00:ab:62:45:48:e5:71:c4:2d:53:7b:3b:d7:85:6f:
                    07:d5:c2:bf:03:85:0c:ab:b2:39:7c:bb:31:50:dc:
                    c6:9e:ca:65:6f:6b:2e:c7:b4:95:f8:55:ca:88:c1:
                    76:12:95:45:9f:e1:53:8a:6a:60:cd:3e:97:05:1e:
                    c2:19:a7:5b:d4:f5:36:be:aa:e6:a9:9c:5d:13:fb:
                    b7:fa:00:5d:2c:f9:05:7d:11:d7:5c:c2:53:54:df:
                    d5:e5:d2:4c:78:83:5b:77:9f:de:27:51:82:29:0b:
                    e3:50:c2:4e:57:7d:cc:c3:e4:52:e4:c3:a4:9c:93:
                    4a:85:ff:1d:26:aa:f4:3f:13:ee:6f:e2:4b:73:f3:
                    22:0b:13:14:c1:47:ab:96:d0:ab:d4:1a:6e:d3:65:
                    b7:65:9b:81:cc:90:a0:56:5b:f3:5e:8a:2e:2c:b7:
                    3b:a7:9e:a9:66:cf:27:f2:be:22:df:dc:48:b6:e5:
                    67:9f:68:a3:09:92:73:f6:f8:61:ab:19:87:40:a5:
                    8f:b2:0c:ce:89:5d:62:2e:cd:76:42:10:d7:92:63:
                    d3:52:04:71:cd:50:a2:8e:d1:ba:7b:23:1b:ea:50:
                    cb:22:b9:c6:75:f1:fc:1b:83:10:3a:2a:95:dd:35:
                    8e:5c:4e:ff:9e:57:76:0f:ec:ee:13:8d:39:b7:a1:
                    19:35
                Exponent: 65537 (0x10001)
        X509v3 extensions:
            X509v3 Subject Key Identifier: 
                C0:77:82:53:A2:B4:A8:30:E6:A2:60:46:6A:60:63:92:99:37:95:76
            X509v3 Authority Key Identifier: 
                keyid:BF:72:90:9E:62:96:66:D7:90:DE:45:64:79:9E:BD:93:DC:D1:EF:37
                DirName:/CN=CA1_sha256_2048_65537_v3_ca
                serial:4D:9C:49:8E:61:65:92:EE:E7:A1:40:36:5E:E0:A8:F2:64:17:CA:9B
            X509v3 Basic Constraints: critical
                CA:TRUE
            X509v3 Key Usage: 
                Certificate Sign
    Signature Algorithm: sha256WithRSAEncryption
    Signature Value:
        7b:c5:7d:f2:35:f1:8e:b7:47:6e:c8:12:2f:73:21:3b:0f:81:
        14:fe:32:24:ee:1f:37:f3:18:f5:10:da:df:2f:ff:39:53:ed:
        c1:55:7a:34:7c:24:f9:a4:95:20:64:d4:d1:a5:1c:68:bf:bd:
        27:a2:69:c1:1f:b0:43:b9:55:6b:8d:44:a0:d4:7e:f7:ef:fe:
        cc:cf:65:18:e5:c2:1c:f8:2c:09:8c:01:1c:4f:45:ff:2e:a4:
        2c:1f:55:8d:ac:39:2e:e4:60:05:c4:fd:40:f5:ac:9b:f1:d9:
        8b:7e:8e:a7:90:69:54:98:f0:ea:4e:3e:57:46:66:df:c7:13:
        a6:20:6a:92:a4:c0:f5:fc:ba:f2:b5:f2:0c:18:4d:5f:bb:3b:
        12:46:77:43:a1:e0:2a:96:27:a3:9a:fe:fa:e1:42:fb:68:01:
        a0:35:1b:97:31:70:bb:b3:38:ea:17:e5:fe:b7:23:a4:bc:d3:
        2e:bb:31:06:4c:c3:8c:f4:55:71:b0:78:66:a5:b4:bd:e8:4c:
        68:0f:ac:d8:28:2e:fc:95:3c:54:8b:4f:94:fb:7e:98:c4:af:
        0d:7c:be:a7:d8:d1:68:61:98:8d:d4:2f:5c:ea:ca:3d:6c:72:
        e0:5c:8f:ed:f6:ee:94:f1:d7:b6:0a:2e:34:37:36:ff:85:cc:
        97:43:18:6a
-----BEGIN CERTIFICATE-----
MIIDcTCCAlmgAwIBAgIEEjRWgTANBgkqhkiG9w0BAQsFADAmMSQwIgYDVQQDFBtD
QTFfc2hhMjU2XzIwNDhfNjU1MzdfdjNfY2EwIBcNMjMwODE1MTE0MzE3WhgPMjEy
MjA3MjIxMTQzMTdaMCcxJTAjBgNVBAMMHFNSSzRfc2hhMjU2XzIwNDhfNjU1Mzdf
djNfY2EwggEiMA0GCSqGSIb3DQEBAQUAA4IBDwAwggEKAoIBAQCrYkVI5XHELVN7
O9eFbwfVwr8DhQyrsjl8uzFQ3MaeymVvay7HtJX4VcqIwXYSlUWf4VOKamDNPpcF
HsIZp1vU9Ta+quapnF0T+7f6AF0s+QV9EddcwlNU39Xl0kx4g1t3n94nUYIpC+NQ
wk5XfczD5FLkw6Sck0qF/x0mqvQ/E+5v4ktz8yILExTBR6uW0KvUGm7TZbdlm4HM
kKBWW/Neii4stzunnqlmzyfyviLf3Ei25WefaKMJknP2+GGrGYdApY+yDM6JXWIu
zXZCENeSY9NSBHHNUKKO0bp7IxvqUMsiucZ18fwbgxA6KpXdNY5cTv+eV3YP7O4T
jTm3oRk1AgMBAAGjgaMwgaAwHQYDVR0OBBYEFMB3glOitKgw5qJgRmpgY5KZN5V2
MGEGA1UdIwRaMFiAFL9ykJ5ilmbXkN5FZHmevZPc0e83oSqkKDAmMSQwIgYDVQQD
FBtDQTFfc2hhMjU2XzIwNDhfNjU1MzdfdjNfY2GCFE2cSY5hZZLu56FANl7gqPJk
F8qbMA8GA1UdEwEB/wQFMAMBAf8wCwYDVR0PBAQDAgIEMA0GCSqGSIb3DQEBCwUA
A4IBAQB7xX3yNfGOt0duyBIvcyE7D4EU/jIk7h838xj1ENrfL/85U+3BVXo0fCT5
pJUgZNTRpRxov70nomnBH7BDuVVrjUSg1H737/7Mz2UY5cIc+CwJjAEcT0X/LqQs
H1WNrDku5GAFxP1A9ayb8dmLfo6nkGlUmPDqTj5XRmbfxxOmIGqSpMD1/LrytfIM
GE1fuzsSRndDoeAqliejmv764UL7aAGgNRuXMXC7szjqF+X+tyOkvNMuuzEGTMOM
9FVxsHhmpbS96ExoD6zYKC78lTxUi0+U+36YxK8NfL6n2NFoYZiN1C9c6so9bHLg
XI/t9u6U8de2Ci40Nzb/hcyXQxhq
-----END CERTIFICATE-----
