Certificate:
    Data:
        Version: 3 (0x2)
        Serial Number: 305419907 (0x12345683)
        Signature Algorithm: sha256WithRSAEncryption
        Issuer: CN=SRK4_sha256_2048_65537_v3_ca
        Validity
            Not Before: Aug 15 11:43:17 2023 GMT
            Not After : Jul 22 11:43:17 2122 GMT
        Subject: CN=IMG4_1_sha256_2048_65537_v3_usr
        Subject Public Key Info:
            Public Key Algorithm: rsaEncryption
                Public-Key: (2048 bit)
                Modulus:
                    00:ac:01:ac:32:f1:67:2b:fa:73:c3:f4:53:0c:3e:
                    c9:6f:91:3e:f1:cb:48:ba:26:12:56:2c:36:f5:94:
                    a9:e6:d0:73:eb:78:09:1e:dd:91:3b:d7:4a:28:fa:
                    de:63:64:10:0f:84:f9:d8:96:c1:a5:89:4b:75:54:
                    1e:79:14:a7:53:7f:c6:d2:d5:df:13:8a:c9:59:11:
                    54:f6:ef:64:37:57:be:a3:21:79:00:08:c5:ba:85:
                    d3:e3:6d:d2:f7:4c:44:61:1c:49:3d:16:1a:e8:c8:
                    38:0d:24:8e:d9:5a:01:8e:c4:0a:2b:0f:42:1b:2f:
                    2f:85:86:8a:9c:b7:69:39:19:f0:1e:b1:82:b9:a8:
                    db:8b:4d:7b:80:41:93:dc:5c:93:5b:3f:31:9d:d4:
                    5d:06:26:8a:24:8c:74:f8:98:c8:74:14:5b:d9:41:
                    34:66:21:79:79:6f:3a:54:75:0c:dd:fd:be:02:b0:
                    e3:5a:7c:9b:16:18:8b:18:a9:7d:3d:75:db:96:27:
                    cc:e0:6e:67:55:ca:f4:47:f5:e5:8f:dd:44:14:66:
                    b5:b1:b7:9d:0e:e8:4d:b0:ab:3f:9e:33:b2:30:89:
                    99:c8:bf:d7:8c:27:7e:a8:fd:02:f4:0c:97:b1:5a:
                    a2:34:7f:0d:12:da:0a:77:27:7e:cf:52:4a:65:5d:
                    17:55
                Exponent: 65537 (0x10001)
        X509v3 extensions:
            X509v3 Basic Constraints: 
                CA:FALSE
            Netscape Comment: 
                OpenSSL Generated Certificate
            X509v3 Subject Key Identifier: 
                E6:C4:50:EF:35:CA:F5:60:CF:C7:BB:3C:E3:E2:E2:58:77:B7:61:43
            X509v3 Authority Key Identifier: 
                C0:77:82:53:A2:B4:A8:30:E6:A2:60:46:6A:60:63:92:99:37:95:76
    Signature Algorithm: sha256WithRSAEncryption
    Signature Value:
        4b:0e:37:26:c8:f8:ee:82:2b:af:b2:58:d9:98:e8:f3:63:33:
        b3:01:2c:9d:d9:42:36:58:d6:e6:69:51:a8:f7:b1:ff:7e:b4:
        cf:18:a9:63:71:8e:3f:6c:2e:5d:92:c3:cd:3b:c6:54:c9:9b:
        9b:a6:be:45:a6:e6:ed:56:03:91:4a:e2:f3:1a:fa:b1:6c:92:
        e6:03:25:9f:7f:e8:2f:7d:27:0c:2f:ee:dd:cc:70:1f:72:da:
        40:0b:c1:91:ab:fc:83:03:fb:6c:d2:e1:85:5e:4a:d4:7f:d7:
        4b:cc:f5:1c:5d:18:13:8a:f8:cd:7d:05:fb:cd:53:35:ed:00:
        49:f1:71:7e:2f:b4:90:e6:1b:fb:78:83:94:8c:e3:dc:ce:9c:
        2e:e3:db:35:ab:1a:e6:e0:2c:36:2b:70:34:11:59:0a:85:f5:
        70:6b:0f:f4:e4:3f:6c:f1:7f:c4:91:ed:77:73:de:74:9f:6c:
        c7:21:c9:96:d7:05:1e:cd:8f:8c:29:68:cf:16:79:af:1c:b9:
        89:82:e7:95:9d:ff:f7:9e:86:30:cb:34:3e:7f:5a:de:ac:1f:
        2d:46:40:3a:e4:32:a2:08:be:fc:d9:0e:f9:97:7d:ee:15:f0:
        b1:2f:8b:7b:97:0b:d4:4e:b9:3e:9e:c2:2c:59:a6:da:c0:5f:
        26:16:43:7b
-----BEGIN CERTIFICATE-----
MIIDTDCCAjSgAwIBAgIEEjRWgzANBgkqhkiG9w0BAQsFADAnMSUwIwYDVQQDDBxT
Uks0X3NoYTI1Nl8yMDQ4XzY1NTM3X3YzX2NhMCAXDTIzMDgxNTExNDMxN1oYDzIx
MjIwNzIyMTE0MzE3WjAqMSgwJgYDVQQDDB9JTUc0XzFfc2hhMjU2XzIwNDhfNjU1
MzdfdjNfdXNyMIIBIjANBgkqhkiG9w0BAQEFAAOCAQ8AMIIBCgKCAQEArAGsMvFn
K/pzw/RTDD7Jb5E+8ctIuiYSViw29ZSp5tBz63gJHt2RO9dKKPreY2QQD4T52JbB
pYlLdVQeeRSnU3/G0tXfE4rJWRFU9u9kN1e+oyF5AAjFuoXT423S90xEYRxJPRYa
6Mg4DSSO2VoBjsQKKw9CGy8vhYaKnLdpORnwHrGCuajbi017gEGT3FyTWz8xndRd
BiaKJIx0+JjIdBRb2UE0ZiF5eW86VHUM3f2+ArDjWnybFhiLGKl9PXXblifM4G5n
Vcr0R/Xlj91EFGa1sbedDuhNsKs/njOyMImZyL/XjCd+qP0C9AyXsVqiNH8NEtoK
dyd+z1JKZV0XVQIDAQABo3sweTAJBgNVHRMEAjAAMCwGCWCGSAGG+EIBDQQfFh1P
cGVuU1NMIEdlbmVyYXRlZCBDZXJ0aWZpY2F0ZTAdBgNVHQ4EFgQU5sRQ7zXK9WDP
x7s84+LiWHe3YUMwHwYDVR0jBBgwFoAUwHeCU6K0qDDmomBGamBjkpk3lXYwDQYJ
KoZIhvcNAQELBQADggEBAEsONybI+O6CK6+yWNmY6PNjM7MBLJ3ZQjZY1uZpUaj3
sf9+tM8YqWNxjj9sLl2Sw807xlTJm5umvkWm5u1WA5FK4vMa+rFskuYDJZ9/6C99
Jwwv7t3McB9y2kALwZGr/IMD+2zS4YVeStR/10vM9RxdGBOK+M19BfvNUzXtAEnx
cX4vtJDmG/t4g5SM49zOnC7j2zWrGubgLDYrcDQRWQqF9XBrD/TkP2zxf8SR7Xdz
3nSfbMchyZbXBR7Nj4wpaM8Wea8cuYmC55Wd//eehjDLND5/Wt6sHy1GQDrkMqII
vvzZDvmXfe4V8LEvi3uXC9ROuT6ewixZptrAXyYWQ3s=
-----END CERTIFICATE-----
