Certificate:
    Data:
        Version: 3 (0x2)
        Serial Number: 305419906 (0x12345682)
        Signature Algorithm: sha256WithRSAEncryption
        Issuer: CN=SRK4_sha256_2048_65537_v3_ca
        Validity
            Not Before: Aug 15 11:43:17 2023 GMT
            Not After : Jul 22 11:43:17 2122 GMT
        Subject: CN=CSF4_1_sha256_2048_65537_v3_usr
        Subject Public Key Info:
            Public Key Algorithm: rsaEncryption
                Public-Key: (2048 bit)
                Modulus:
                    00:dc:8f:55:e7:65:fb:9d:84:6f:40:d4:af:bb:f0:
                    d7:0f:79:d0:60:f7:7d:76:be:65:fe:04:bc:e8:2c:
                    28:06:51:bd:40:ee:09:c8:84:92:38:2e:20:17:d0:
                    3f:3f:8b:1e:09:54:5e:19:95:62:0c:d4:28:c3:ed:
                    b2:57:bb:38:10:4f:d7:e6:83:c1:23:ec:7d:bd:3c:
                    3e:fe:cd:1f:50:e8:42:0c:7e:83:48:64:ee:74:10:
                    8f:13:18:c9:62:05:01:9e:72:97:65:24:88:47:86:
                    ef:ad:4d:f4:bd:39:92:cd:24:b7:87:11:be:a4:15:
                    3e:60:64:dc:2b:6c:3a:1f:3c:a7:54:f9:f0:a7:b3:
                    b7:33:6e:cc:95:0a:ea:0b:e7:20:4f:9c:d0:24:1c:
                    0d:54:18:a2:86:80:0e:3f:d5:89:fc:de:57:e9:5a:
                    26:8d:b2:02:59:36:48:99:a2:9a:f6:7d:41:de:32:
                    a0:b6:d8:30:93:26:8a:cb:7a:48:e5:8d:3d:86:06:
                    1d:ef:00:79:d8:27:15:86:38:69:9d:d5:99:5a:fc:
                    93:49:ea:aa:2d:6c:51:14:8f:d5:b5:00:6d:d2:3c:
                    e6:1b:ab:b2:c7:db:86:4a:8b:5d:6a:6d:3e:a0:cc:
                    23:ac:aa:dd:4e:a2:f6:f8:a5:a1:8f:84:3b:21:38:
                    39:09
                Exponent: 65537 (0x10001)
        X509v3 extensions:
            X509v3 Basic Constraints: 
                CA:FALSE
            Netscape Comment: 
                OpenSSL Generated Certificate
            X509v3 Subject Key Identifier: 
                63:FA:15:86:13:53:87:B3:39:F9:77:E3:61:EE:D2:18:12:86:6F:78
            X509v3 Authority Key Identifier: 
                C0:77:82:53:A2:B4:A8:30:E6:A2:60:46:6A:60:63:92:99:37:95:76
    Signature Algorithm: sha256WithRSAEncryption
    Signature Value:
        28:be:08:92:e6:01:51:5e:e0:a2:6d:e5:b1:c8:07:d2:f4:05:
        05:03:2c:a6:5d:e9:64:2e:9f:67:40:63:78:7e:21:b7:f0:7b:
        90:42:fb:ba:3a:54:7a:1c:90:1b:27:ca:18:d9:0f:0f:9a:c4:
        b6:73:17:10:84:4e:cb:20:bc:49:fe:97:b7:ab:e4:a1:4f:53:
        82:59:e1:73:95:2c:a3:b9:23:92:96:fa:fc:d9:71:e3:dc:cc:
        79:b7:12:ff:62:ea:42:9d:42:bd:af:88:74:fe:68:ef:60:90:
        c4:b5:1c:ef:c3:88:b7:67:8d:e9:db:ed:a6:1b:46:e1:87:30:
        b4:87:24:d2:62:f8:c7:04:58:d4:19:0e:0f:76:a8:65:28:fb:
        5b:6a:6d:b2:3f:75:57:6c:d8:d8:b3:f0:97:be:00:dc:17:81:
        9c:fe:32:bd:13:c1:6a:a2:b4:b6:05:d8:53:48:51:69:0a:5a:
        c2:1d:69:81:c8:5b:7d:b7:78:b0:b5:eb:3d:65:3b:fe:81:d0:
        d5:7c:cf:62:f4:98:63:eb:c9:d3:12:4b:22:68:f6:e1:6b:d2:
        20:ae:e4:fd:4d:02:17:e5:f3:8b:69:ba:34:f5:31:bd:49:fc:
        65:b0:67:29:02:00:7d:3a:6a:5f:df:47:61:41:d2:59:9e:b4:
        0b:1b:3b:76
-----BEGIN CERTIFICATE-----
MIIDTDCCAjSgAwIBAgIEEjRWgjANBgkqhkiG9w0BAQsFADAnMSUwIwYDVQQDDBxT
Uks0X3NoYTI1Nl8yMDQ4XzY1NTM3X3YzX2NhMCAXDTIzMDgxNTExNDMxN1oYDzIx
MjIwNzIyMTE0MzE3WjAqMSgwJgYDVQQDDB9DU0Y0XzFfc2hhMjU2XzIwNDhfNjU1
MzdfdjNfdXNyMIIBIjANBgkqhkiG9w0BAQEFAAOCAQ8AMIIBCgKCAQEA3I9V52X7
nYRvQNSvu/DXD3nQYPd9dr5l/gS86CwoBlG9QO4JyISSOC4gF9A/P4seCVReGZVi
DNQow+2yV7s4EE/X5oPBI+x9vTw+/s0fUOhCDH6DSGTudBCPExjJYgUBnnKXZSSI
R4bvrU30vTmSzSS3hxG+pBU+YGTcK2w6HzynVPnwp7O3M27MlQrqC+cgT5zQJBwN
VBiihoAOP9WJ/N5X6VomjbICWTZImaKa9n1B3jKgttgwkyaKy3pI5Y09hgYd7wB5
2CcVhjhpndWZWvyTSeqqLWxRFI/VtQBt0jzmG6uyx9uGSotdam0+oMwjrKrdTqL2
+KWhj4Q7ITg5CQIDAQABo3sweTAJBgNVHRMEAjAAMCwGCWCGSAGG+EIBDQQfFh1P
cGVuU1NMIEdlbmVyYXRlZCBDZXJ0aWZpY2F0ZTAdBgNVHQ4EFgQUY/oVhhNTh7M5
+XfjYe7SGBKGb3gwHwYDVR0jBBgwFoAUwHeCU6K0qDDmomBGamBjkpk3lXYwDQYJ
KoZIhvcNAQELBQADggEBACi+CJLmAVFe4KJt5bHIB9L0BQUDLKZd6WQun2dAY3h+
Ibfwe5BC+7o6VHockBsnyhjZDw+axLZzFxCETssgvEn+l7er5KFPU4JZ4XOVLKO5
I5KW+vzZcePczHm3Ev9i6kKdQr2viHT+aO9gkMS1HO/DiLdnjenb7aYbRuGHMLSH
JNJi+McEWNQZDg92qGUo+1tqbbI/dVds2Niz8Je+ANwXgZz+Mr0TwWqitLYF2FNI
UWkKWsIdaYHIW323eLC16z1lO/6B0NV8z2L0mGPrydMSSyJo9uFr0iCu5P1NAhfl
84tpujT1Mb1J/GWwZykCAH06al/fR2FB0lmetAsbO3Y=
-----END CERTIFICATE-----
